; Function Attrs: mustprogress nofree norecurse nosync nounwind willreturn memory(argmem: readwrite) uwtable
define void @_ZN8facebook5velox6crypto10MD5Context6FinishEPh(ptr nocapture noundef nonnull align 4 dereferenceable(88) %this, ptr nocapture noundef writeonly %out_digest) local_unnamed_addr #3 align 2 {
entry:
  %bits = getelementptr inbounds i8, ptr %this, i64 16
  %0 = load i32, ptr %bits, align 4
  %shr = lshr i32 %0, 3
  %and = and i32 %shr, 63
  %in = getelementptr inbounds i8, ptr %this, i64 24
  %idx.ext = zext nneg i32 %and to i64
  %add.ptr = getelementptr inbounds i8, ptr %in, i64 %idx.ext
  %incdec.ptr = getelementptr inbounds i8, ptr %add.ptr, i64 1
  store i8 -128, ptr %add.ptr, align 1
  %sub = xor i32 %and, 63
  %cmp = icmp ult i32 %sub, 8
  br i1 %cmp, label %if.then, label %if.else

if.then:                                          ; preds = %entry
  %conv = zext nneg i32 %sub to i64
  tail call void @llvm.memset.p0.i64(ptr nonnull align 1 %incdec.ptr, i8 0, i64 %conv, i1 false)
  tail call fastcc void @_ZN8facebook5velox6cryptoL12MD5TransformEPjPKj(ptr noundef nonnull %this, ptr noundef nonnull %in)
  tail call void @llvm.memset.p0.i64(ptr noundef nonnull align 4 dereferenceable(56) %in, i8 0, i64 56, i1 false)
  br label %if.end

if.else:                                          ; preds = %entry
  %sub9 = sub nsw i32 55, %and
  %conv10 = zext nneg i32 %sub9 to i64
  tail call void @llvm.memset.p0.i64(ptr nonnull align 1 %incdec.ptr, i8 0, i64 %conv10, i1 false)
  br label %if.end

if.end:                                           ; preds = %if.else, %if.then
  %arrayidx17 = getelementptr inbounds i8, ptr %this, i64 80
  %1 = load <2 x i32>, ptr %bits, align 4
  store <2 x i32> %1, ptr %arrayidx17, align 4
  tail call fastcc void @_ZN8facebook5velox6cryptoL12MD5TransformEPjPKj(ptr noundef nonnull %this, ptr noundef nonnull %in)
  tail call void @llvm.memcpy.p0.p0.i64(ptr noundef nonnull align 1 dereferenceable(16) %out_digest, ptr noundef nonnull align 4 dereferenceable(16) %this, i64 16, i1 false)
  ret void
}